; Function Attrs: mustprogress nofree norecurse nosync nounwind willreturn memory(read, inaccessiblemem: none) uwtable
define noundef zeroext i1 @_ZN8facebook5velox3row10CompactRow8isNullAtEi(ptr nocapture noundef nonnull readonly align 8 dereferenceable(224) %this, i32 noundef %index) local_unnamed_addr #3 align 2 {
entry:
  %nulls_.i = getelementptr inbounds i8, ptr %this, i64 32
  %0 = load ptr, ptr %nulls_.i, align 8
  %tobool.not.i = icmp eq ptr %0, null
  br i1 %tobool.not.i, label %_ZNK8facebook5velox13DecodedVector8isNullAtEi.exit, label %if.end.i

if.end.i:                                         ; preds = %entry
  %isIdentityMapping_.i = getelementptr inbounds i8, ptr %this, i64 66
  %1 = load i8, ptr %isIdentityMapping_.i, align 2
  %2 = and i8 %1, 1
  %tobool2.not.i = icmp eq i8 %2, 0
  br i1 %tobool2.not.i, label %lor.lhs.false.i, label %if.then4.i

lor.lhs.false.i:                                  ; preds = %if.end.i
  %hasExtraNulls_.i = getelementptr inbounds i8, ptr %this, i64 65
  %3 = load i8, ptr %hasExtraNulls_.i, align 1
  %4 = and i8 %3, 1
  %tobool3.not.i = icmp eq i8 %4, 0
  br i1 %tobool3.not.i, label %if.end6.i, label %if.then4.i

if.then4.i:                                       ; preds = %lor.lhs.false.i, %if.end.i
  %conv.i.i.i = sext i32 %index to i64
  %div2.i.i.i = lshr i64 %conv.i.i.i, 6
  %arrayidx.i.i.i = getelementptr inbounds i64, ptr %0, i64 %div2.i.i.i
  %5 = load i64, ptr %arrayidx.i.i.i, align 8
  %and.i.i.i = and i64 %conv.i.i.i, 63
  %shl.i.i.i = shl nuw i64 1, %and.i.i.i
  %and2.i.i.i = and i64 %5, %shl.i.i.i
  %tobool.i.not.i.i = icmp eq i64 %and2.i.i.i, 0
  br label %_ZNK8facebook5velox13DecodedVector8isNullAtEi.exit

if.end6.i:                                        ; preds = %lor.lhs.false.i
  %isConstantMapping_.i = getelementptr inbounds i8, ptr %this, i64 67
  %6 = load i8, ptr %isConstantMapping_.i, align 1
  %7 = and i8 %6, 1
  %tobool7.not.i = icmp eq i8 %7, 0
  br i1 %tobool7.not.i, label %if.end11.i, label %if.then8.i

if.then8.i:                                       ; preds = %if.end6.i
  %8 = load i64, ptr %0, align 8
  %and2.i.i2.i = and i64 %8, 1
  %tobool.i.not.i3.i = icmp eq i64 %and2.i.i2.i, 0
  br label %_ZNK8facebook5velox13DecodedVector8isNullAtEi.exit

if.end11.i:                                       ; preds = %if.end6.i
  %indices_.i = getelementptr inbounds i8, ptr %this, i64 16
  %9 = load ptr, ptr %indices_.i, align 8
  %idxprom.i = sext i32 %index to i64
  %arrayidx.i = getelementptr inbounds i32, ptr %9, i64 %idxprom.i
  %10 = load i32, ptr %arrayidx.i, align 4
  %conv.i.i4.i = sext i32 %10 to i64
  %div2.i.i5.i = lshr i64 %conv.i.i4.i, 6
  %arrayidx.i.i6.i = getelementptr inbounds i64, ptr %0, i64 %div2.i.i5.i
  %11 = load i64, ptr %arrayidx.i.i6.i, align 8
  %and.i.i7.i = and i64 %conv.i.i4.i, 63
  %shl.i.i8.i = shl nuw i64 1, %and.i.i7.i
  %and2.i.i9.i = and i64 %shl.i.i8.i, %11
  %tobool.i.not.i10.i = icmp eq i64 %and2.i.i9.i, 0
  br label %_ZNK8facebook5velox13DecodedVector8isNullAtEi.exit

_ZNK8facebook5velox13DecodedVector8isNullAtEi.exit: ; preds = %entry, %if.then4.i, %if.then8.i, %if.end11.i
  %retval.0.i = phi i1 [ %tobool.i.not.i.i, %if.then4.i ], [ %tobool.i.not.i3.i, %if.then8.i ], [ %tobool.i.not.i10.i, %if.end11.i ], [ false, %entry ]
  ret i1 %retval.0.i
}